target datalayout = "e-m:e-p270:32:32-p271:32:32-p272:64:64-i64:64-i128:128-f80:128-n8:16:32:64-S128"
target triple = "x86_64-pc-linux-gnu"

@proto_register_tapa.ett = internal global [3 x ptr] [ptr @ett_tapa_discover, ptr @ett_tapa_discover_req, ptr @ett_tapa_tunnel], align 16
@.str.57 = private unnamed_addr constant [37 x i8] c"Trapeze Access Point Access Protocol\00", align 1
@.str.58 = private unnamed_addr constant [5 x i8] c"TAPA\00", align 1
@.str.59 = private unnamed_addr constant [5 x i8] c"tapa\00", align 1
@proto_tapa = internal global i32 0, align 4
@tapa_handle = internal global ptr null, align 8

; Function Attrs: nounwind uwtable
define hidden void @proto_register_tapa() #0 {
  %1 = alloca ptr, align 8
  %2 = call i32 @proto_register_protocol(ptr noundef @.str.57, ptr noundef @.str.58, ptr noundef @.str.59)
  store i32 %2, ptr @proto_tapa, align 4
  %3 = load i32, ptr @proto_tapa, align 4
  call void @proto_register_field_array(i32 noundef %3, ptr noundef @proto_register_tapa.hf, i32 noundef 28)
  call void @proto_register_subtree_array(ptr noundef @proto_register_tapa.ett, i32 noundef 3)
  %4 = load i32, ptr @proto_tapa, align 4
  %5 = call ptr @expert_register_protocol(i32 noundef %4)
  store ptr %5, ptr %1, align 8
  %6 = load ptr, ptr %1, align 8
  call void @expert_register_field_array(ptr noundef %6, ptr noundef @proto_register_tapa.ei, i32 noundef 1)
  %7 = load i32, ptr @proto_tapa, align 4
  %8 = call ptr @register_dissector(ptr noundef @.str.59, ptr noundef @dissect_tapa_static, i32 noundef %7)
  store ptr %8, ptr @tapa_handle, align 8
  ret void
}