; Function Attrs: nounwind uwtable
define hidden void @proto_register_tapa() local_unnamed_addr #0 {
  %1 = tail call i32 @proto_register_protocol(ptr noundef nonnull @.str.57, ptr noundef nonnull @.str.58, ptr noundef nonnull @.str.59) #3
  store i32 %1, ptr @proto_tapa, align 4
  tail call void @proto_register_field_array(i32 noundef %1, ptr noundef nonnull @proto_register_tapa.hf, i32 noundef 28) #3
  tail call void @proto_register_subtree_array(ptr noundef nonnull @proto_register_tapa.ett, i32 noundef 3) #3
  %2 = load i32, ptr @proto_tapa, align 4
  %3 = tail call ptr @expert_register_protocol(i32 noundef %2) #3
  tail call void @expert_register_field_array(ptr noundef %3, ptr noundef nonnull @proto_register_tapa.ei, i32 noundef 1) #3
  %4 = load i32, ptr @proto_tapa, align 4
  %5 = tail call ptr @register_dissector(ptr noundef nonnull @.str.59, ptr noundef nonnull @dissect_tapa_static, i32 noundef %4) #3
  store ptr %5, ptr @tapa_handle, align 8
  ret void
}